; ModuleID = '14/259.c'
source_filename = "14/259.c"
target datalayout = "e-m:e-p270:32:32-p271:32:32-p272:64:64-i64:64-f80:128-n8:16:32:64-S128"
target triple = "x86_64-pc-linux-gnu"

%struct.student = type { i32, i32, i32, i32 }

@.str = private unnamed_addr constant [3 x i8] c"%d\00", align 1
@.str.1 = private unnamed_addr constant [7 x i8] c"%d%d%d\00", align 1
@.str.2 = private unnamed_addr constant [7 x i8] c"%d %d\0A\00", align 1

; Function Attrs: noinline nounwind uwtable
define dso_local i32 @main() #0 {
  %1 = alloca i32, align 4
  %2 = alloca i32, align 4
  %3 = alloca %struct.student*, align 8
  %4 = alloca i32, align 4
  %5 = alloca i32, align 4
  %6 = alloca i32, align 4
  %7 = alloca i32, align 4
  %8 = alloca i32, align 4
  store i32 0, i32* %1, align 4
  %9 = call i32 (i8*, ...) @__isoc99_scanf(i8* getelementptr inbounds ([3 x i8], [3 x i8]* @.str, i64 0, i64 0), i32* %2)
  %10 = load i32, i32* %2, align 4
  %11 = sext i32 %10 to i64
  %12 = mul i64 16, %11
  %13 = call noalias i8* @malloc(i64 %12) #3
  %14 = bitcast i8* %13 to %struct.student*
  store %struct.student* %14, %struct.student** %3, align 8
  store i32 0, i32* %4, align 4
  br label %15

15:                                               ; preds = %36, %0
  %16 = load i32, i32* %4, align 4
  %17 = load i32, i32* %2, align 4
  %18 = icmp slt i32 %16, %17
  br i1 %18, label %19, label %39

19:                                               ; preds = %15
  %20 = load %struct.student*, %struct.student** %3, align 8
  %21 = load i32, i32* %4, align 4
  %22 = sext i32 %21 to i64
  %23 = getelementptr inbounds %struct.student, %struct.student* %20, i64 %22
  %24 = getelementptr inbounds %struct.student, %struct.student* %23, i32 0, i32 0
  %25 = load %struct.student*, %struct.student** %3, align 8
  %26 = load i32, i32* %4, align 4
  %27 = sext i32 %26 to i64
  %28 = getelementptr inbounds %struct.student, %struct.student* %25, i64 %27
  %29 = getelementptr inbounds %struct.student, %struct.student* %28, i32 0, i32 1
  %30 = load %struct.student*, %struct.student** %3, align 8
  %31 = load i32, i32* %4, align 4
  %32 = sext i32 %31 to i64
  %33 = getelementptr inbounds %struct.student, %struct.student* %30, i64 %32
  %34 = getelementptr inbounds %struct.student, %struct.student* %33, i32 0, i32 2
  %35 = call i32 (i8*, ...) @__isoc99_scanf(i8* getelementptr inbounds ([7 x i8], [7 x i8]* @.str.1, i64 0, i64 0), i32* %24, i32* %29, i32* %34)
  br label %36

36:                                               ; preds = %19
  %37 = load i32, i32* %4, align 4
  %38 = add nsw i32 %37, 1
  store i32 %38, i32* %4, align 4
  br label %15

39:                                               ; preds = %15
  store i32 0, i32* %4, align 4
  br label %40

40:                                               ; preds = %63, %39
  %41 = load i32, i32* %4, align 4
  %42 = load i32, i32* %2, align 4
  %43 = icmp slt i32 %41, %42
  br i1 %43, label %44, label %66

44:                                               ; preds = %40
  %45 = load %struct.student*, %struct.student** %3, align 8
  %46 = load i32, i32* %4, align 4
  %47 = sext i32 %46 to i64
  %48 = getelementptr inbounds %struct.student, %struct.student* %45, i64 %47
  %49 = getelementptr inbounds %struct.student, %struct.student* %48, i32 0, i32 1
  %50 = load i32, i32* %49, align 4
  %51 = load %struct.student*, %struct.student** %3, align 8
  %52 = load i32, i32* %4, align 4
  %53 = sext i32 %52 to i64
  %54 = getelementptr inbounds %struct.student, %struct.student* %51, i64 %53
  %55 = getelementptr inbounds %struct.student, %struct.student* %54, i32 0, i32 2
  %56 = load i32, i32* %55, align 4
  %57 = add nsw i32 %50, %56
  %58 = load %struct.student*, %struct.student** %3, align 8
  %59 = load i32, i32* %4, align 4
  %60 = sext i32 %59 to i64
  %61 = getelementptr inbounds %struct.student, %struct.student* %58, i64 %60
  %62 = getelementptr inbounds %struct.student, %struct.student* %61, i32 0, i32 3
  store i32 %57, i32* %62, align 4
  br label %63

63:                                               ; preds = %44
  %64 = load i32, i32* %4, align 4
  %65 = add nsw i32 %64, 1
  store i32 %65, i32* %4, align 4
  br label %40

66:                                               ; preds = %40
  store i32 1, i32* %8, align 4
  br label %67

67:                                               ; preds = %148, %66
  %68 = load i32, i32* %8, align 4
  %69 = icmp slt i32 %68, 4
  br i1 %69, label %70, label %151

70:                                               ; preds = %67
  store i32 0, i32* %7, align 4
  br label %71

71:                                               ; preds = %144, %70
  %72 = load i32, i32* %7, align 4
  %73 = load i32, i32* %2, align 4
  %74 = load i32, i32* %8, align 4
  %75 = sub nsw i32 %73, %74
  %76 = icmp slt i32 %72, %75
  br i1 %76, label %77, label %147

77:                                               ; preds = %71
  %78 = load %struct.student*, %struct.student** %3, align 8
  %79 = load i32, i32* %7, align 4
  %80 = sext i32 %79 to i64
  %81 = getelementptr inbounds %struct.student, %struct.student* %78, i64 %80
  %82 = getelementptr inbounds %struct.student, %struct.student* %81, i32 0, i32 3
  %83 = load i32, i32* %82, align 4
  %84 = load %struct.student*, %struct.student** %3, align 8
  %85 = load i32, i32* %7, align 4
  %86 = add nsw i32 %85, 1
  %87 = sext i32 %86 to i64
  %88 = getelementptr inbounds %struct.student, %struct.student* %84, i64 %87
  %89 = getelementptr inbounds %struct.student, %struct.student* %88, i32 0, i32 3
  %90 = load i32, i32* %89, align 4
  %91 = icmp sge i32 %83, %90
  br i1 %91, label %92, label %143

92:                                               ; preds = %77
  %93 = load %struct.student*, %struct.student** %3, align 8
  %94 = load i32, i32* %7, align 4
  %95 = add nsw i32 %94, 1
  %96 = sext i32 %95 to i64
  %97 = getelementptr inbounds %struct.student, %struct.student* %93, i64 %96
  %98 = getelementptr inbounds %struct.student, %struct.student* %97, i32 0, i32 3
  %99 = load i32, i32* %98, align 4
  store i32 %99, i32* %5, align 4
  %100 = load %struct.student*, %struct.student** %3, align 8
  %101 = load i32, i32* %7, align 4
  %102 = sext i32 %101 to i64
  %103 = getelementptr inbounds %struct.student, %struct.student* %100, i64 %102
  %104 = getelementptr inbounds %struct.student, %struct.student* %103, i32 0, i32 3
  %105 = load i32, i32* %104, align 4
  %106 = load %struct.student*, %struct.student** %3, align 8
  %107 = load i32, i32* %7, align 4
  %108 = add nsw i32 %107, 1
  %109 = sext i32 %108 to i64
  %110 = getelementptr inbounds %struct.student, %struct.student* %106, i64 %109
  %111 = getelementptr inbounds %struct.student, %struct.student* %110, i32 0, i32 3
  store i32 %105, i32* %111, align 4
  %112 = load i32, i32* %5, align 4
  %113 = load %struct.student*, %struct.student** %3, align 8
  %114 = load i32, i32* %7, align 4
  %115 = sext i32 %114 to i64
  %116 = getelementptr inbounds %struct.student, %struct.student* %113, i64 %115
  %117 = getelementptr inbounds %struct.student, %struct.student* %116, i32 0, i32 3
  store i32 %112, i32* %117, align 4
  %118 = load %struct.student*, %struct.student** %3, align 8
  %119 = load i32, i32* %7, align 4
  %120 = add nsw i32 %119, 1
  %121 = sext i32 %120 to i64
  %122 = getelementptr inbounds %struct.student, %struct.student* %118, i64 %121
  %123 = getelementptr inbounds %struct.student, %struct.student* %122, i32 0, i32 0
  %124 = load i32, i32* %123, align 4
  store i32 %124, i32* %6, align 4
  %125 = load %struct.student*, %struct.student** %3, align 8
  %126 = load i32, i32* %7, align 4
  %127 = sext i32 %126 to i64
  %128 = getelementptr inbounds %struct.student, %struct.student* %125, i64 %127
  %129 = getelementptr inbounds %struct.student, %struct.student* %128, i32 0, i32 0
  %130 = load i32, i32* %129, align 4
  %131 = load %struct.student*, %struct.student** %3, align 8
  %132 = load i32, i32* %7, align 4
  %133 = add nsw i32 %132, 1
  %134 = sext i32 %133 to i64
  %135 = getelementptr inbounds %struct.student, %struct.student* %131, i64 %134
  %136 = getelementptr inbounds %struct.student, %struct.student* %135, i32 0, i32 0
  store i32 %130, i32* %136, align 4
  %137 = load i32, i32* %6, align 4
  %138 = load %struct.student*, %struct.student** %3, align 8
  %139 = load i32, i32* %7, align 4
  %140 = sext i32 %139 to i64
  %141 = getelementptr inbounds %struct.student, %struct.student* %138, i64 %140
  %142 = getelementptr inbounds %struct.student, %struct.student* %141, i32 0, i32 0
  store i32 %137, i32* %142, align 4
  br label %143

143:                                              ; preds = %92, %77
  br label %144

144:                                              ; preds = %143
  %145 = load i32, i32* %7, align 4
  %146 = add nsw i32 %145, 1
  store i32 %146, i32* %7, align 4
  br label %71

147:                                              ; preds = %71
  br label %148

148:                                              ; preds = %147
  %149 = load i32, i32* %8, align 4
  %150 = add nsw i32 %149, 1
  store i32 %150, i32* %8, align 4
  br label %67

151:                                              ; preds = %67
  %152 = load i32, i32* %2, align 4
  %153 = sub nsw i32 %152, 1
  store i32 %153, i32* %4, align 4
  br label %154

154:                                              ; preds = %173, %151
  %155 = load i32, i32* %4, align 4
  %156 = load i32, i32* %2, align 4
  %157 = sub nsw i32 %156, 4
  %158 = icmp sgt i32 %155, %157
  br i1 %158, label %159, label %176

159:                                              ; preds = %154
  %160 = load %struct.student*, %struct.student** %3, align 8
  %161 = load i32, i32* %4, align 4
  %162 = sext i32 %161 to i64
  %163 = getelementptr inbounds %struct.student, %struct.student* %160, i64 %162
  %164 = getelementptr inbounds %struct.student, %struct.student* %163, i32 0, i32 0
  %165 = load i32, i32* %164, align 4
  %166 = load %struct.student*, %struct.student** %3, align 8
  %167 = load i32, i32* %4, align 4
  %168 = sext i32 %167 to i64
  %169 = getelementptr inbounds %struct.student, %struct.student* %166, i64 %168
  %170 = getelementptr inbounds %struct.student, %struct.student* %169, i32 0, i32 3
  %171 = load i32, i32* %170, align 4
  %172 = call i32 (i8*, ...) @printf(i8* getelementptr inbounds ([7 x i8], [7 x i8]* @.str.2, i64 0, i64 0), i32 %165, i32 %171)
  br label %173

173:                                              ; preds = %159
  %174 = load i32, i32* %4, align 4
  %175 = add nsw i32 %174, -1
  store i32 %175, i32* %4, align 4
  br label %154

176:                                              ; preds = %154
  ret i32 0
}

declare dso_local i32 @__isoc99_scanf(i8*, ...) #1

; Function Attrs: nounwind
declare dso_local noalias i8* @malloc(i64) #2

declare dso_local i32 @printf(i8*, ...) #1


!llvm.module.flags = !{!0}
!llvm.ident = !{!1}

!0 = !{i32 1, !"wchar_size", i32 4}
!1 = !{!"clang version 10.0.0-4ubuntu1 "}
